target datalayout = "e-m:e-p270:32:32-p271:32:32-p272:64:64-i64:64-i128:128-f80:128-n8:16:32:64-S128"
target triple = "x86_64-pc-linux-gnu"

%struct.auth_ops_t = type { ptr, ptr, ptr, ptr, ptr, ptr, ptr, ptr, ptr, ptr, ptr, ptr, ptr, ptr, ptr, ptr }
%struct.cred_wrapper_t = type { i32, [0 x i8] }
%struct.slurm_msg = type { %struct.sockaddr_storage, ptr, i32, i32, i32, i8, i32, i8, i32, ptr, ptr, i32, ptr, ptr, i16, i8, i16, i16, %struct.forward, ptr, %struct.sockaddr_storage, ptr }
%struct.forward = type { %struct.slurm_node_alias_addrs_t, i16, i16, ptr, i32, i16, i16 }
%struct.slurm_node_alias_addrs_t = type { i64, ptr, ptr, i32, ptr }
%struct.sockaddr_storage = type { i16, [118 x i8], i64 }
%struct.persist_conn_t = type { ptr, i32, i32, i8, ptr, ptr, ptr, i64, i16, i32, i16, i8, i32, i32, ptr, i16, ptr, i64, i32, ptr, %struct.slurm_trigger_callbacks_t, i16 }
%struct.slurm_trigger_callbacks_t = type { ptr, ptr, ptr, ptr, ptr }

@ops = internal global ptr null, align 8
@.str.12 = private unnamed_addr constant [7 x i8] c"auth.c\00", align 1
@.str.17 = private unnamed_addr constant [32 x i8] c"%s: pthread_rwlock_unlock(): %m\00", align 1
@.str.19 = private unnamed_addr constant [32 x i8] c"%s: pthread_rwlock_rdlock(): %m\00", align 1
@__func__.auth_g_get_host = private unnamed_addr constant [16 x i8] c"auth_g_get_host\00", align 1
@.str.20 = private unnamed_addr constant [25 x i8] c"%s: using auth token: %s\00", align 1
@.str.21 = private unnamed_addr constant [30 x i8] c"%s: using remote hostname: %s\00", align 1
@.str.22 = private unnamed_addr constant [55 x i8] c"%s: [fd:%d] unable to determine socket remote host: %s\00", align 1
@.str.23 = private unnamed_addr constant [47 x i8] c"%s: looked up from connection's IP address: %s\00", align 1
@.str.24 = private unnamed_addr constant [38 x i8] c"%s: using connection's IP address: %s\00", align 1
@context_lock = internal global { { i32, i32, i32, i32, i32, i32, i32, i32, i8, [7 x i8], i64, i32, [4 x i8] } } zeroinitializer, align 8

; Function Attrs: nounwind uwtable
define dso_local ptr @auth_g_get_host(ptr noundef %0) #0 {
  %2 = alloca ptr, align 8
  %3 = alloca ptr, align 8
  %4 = alloca ptr, align 8
  %5 = alloca ptr, align 8
  %6 = alloca ptr, align 8
  %7 = alloca ptr, align 8
  %8 = alloca i32, align 4
  %9 = alloca i32, align 4
  %10 = alloca i32, align 4
  %11 = alloca i32, align 4
  store ptr %0, ptr %3, align 8
  call void @llvm.lifetime.start.p0(i64 8, ptr %4) #6
  %12 = load ptr, ptr %3, align 8
  store ptr %12, ptr %4, align 8
  call void @llvm.lifetime.start.p0(i64 8, ptr %5) #6
  %13 = load ptr, ptr %4, align 8
  %14 = getelementptr inbounds nuw %struct.slurm_msg, ptr %13, i32 0, i32 0
  store ptr %14, ptr %5, align 8
  call void @llvm.lifetime.start.p0(i64 8, ptr %6) #6
  store ptr null, ptr %6, align 8
  call void @llvm.lifetime.start.p0(i64 8, ptr %7) #6
  store ptr null, ptr %7, align 8
  %15 = load ptr, ptr %4, align 8
  %16 = icmp ne ptr %15, null
  br i1 %16, label %17, label %22

17:                                               ; preds = %1
  %18 = load ptr, ptr %4, align 8
  %19 = getelementptr inbounds nuw %struct.slurm_msg, ptr %18, i32 0, i32 1
  %20 = load ptr, ptr %19, align 8
  store ptr %20, ptr %6, align 8
  %21 = icmp ne ptr %20, null
  br i1 %21, label %23, label %22

22:                                               ; preds = %17, %1
  store ptr null, ptr %2, align 8
  store i32 1, ptr %8, align 4
  br label %162

23:                                               ; preds = %17
  br label %24

24:                                               ; preds = %23
  call void @llvm.lifetime.start.p0(i64 4, ptr %9) #6
  %25 = call i32 @pthread_rwlock_rdlock(ptr noundef @context_lock) #6
  store i32 %25, ptr %9, align 4
  %26 = load i32, ptr %9, align 4
  %27 = icmp ne i32 %26, 0
  br i1 %27, label %28, label %31

28:                                               ; preds = %24
  %29 = load i32, ptr %9, align 4
  %30 = call ptr @__errno_location() #8
  store i32 %29, ptr %30, align 4
  call void (ptr, ...) @fatal_abort(ptr noundef @.str.19, ptr noundef @__func__.auth_g_get_host) #7
  unreachable

31:                                               ; preds = %24
  call void @llvm.lifetime.end.p0(i64 4, ptr %9) #6
  br label %32

32:                                               ; preds = %31
  br label %33

33:                                               ; preds = %32
  %34 = load ptr, ptr @ops, align 8
  %35 = load ptr, ptr %6, align 8
  %36 = getelementptr inbounds nuw %struct.cred_wrapper_t, ptr %35, i32 0, i32 0
  %37 = load i32, ptr %36, align 4
  %38 = sext i32 %37 to i64
  %39 = getelementptr inbounds %struct.auth_ops_t, ptr %34, i64 %38
  %40 = getelementptr inbounds nuw %struct.auth_ops_t, ptr %39, i32 0, i32 7
  %41 = load ptr, ptr %40, align 8
  %42 = load ptr, ptr %6, align 8
  %43 = call ptr %41(ptr noundef %42)
  store ptr %43, ptr %7, align 8
  br label %44

44:                                               ; preds = %33
  call void @llvm.lifetime.start.p0(i64 4, ptr %10) #6
  %45 = call i32 @pthread_rwlock_unlock(ptr noundef @context_lock) #6
  store i32 %45, ptr %10, align 4
  %46 = load i32, ptr %10, align 4
  %47 = icmp ne i32 %46, 0
  br i1 %47, label %48, label %51

48:                                               ; preds = %44
  %49 = load i32, ptr %10, align 4
  %50 = call ptr @__errno_location() #8
  store i32 %49, ptr %50, align 4
  call void (ptr, ...) @fatal_abort(ptr noundef @.str.17, ptr noundef @__func__.auth_g_get_host) #7
  unreachable

51:                                               ; preds = %44
  call void @llvm.lifetime.end.p0(i64 4, ptr %10) #6
  br label %52

52:                                               ; preds = %51
  br label %53

53:                                               ; preds = %52
  %54 = load ptr, ptr %7, align 8
  %55 = icmp ne ptr %54, null
  br i1 %55, label %56, label %69

56:                                               ; preds = %53
  br label %57

57:                                               ; preds = %56
  br label %58

58:                                               ; preds = %57
  %59 = call i32 @get_log_level()
  %60 = icmp sge i32 %59, 7
  br i1 %60, label %61, label %63

61:                                               ; preds = %58
  %62 = load ptr, ptr %7, align 8
  call void (i32, ptr, ...) @log_var(i32 noundef 7, ptr noundef @.str.20, ptr noundef @__func__.auth_g_get_host, ptr noundef %62)
  br label %63

63:                                               ; preds = %61, %58
  br label %64

64:                                               ; preds = %63
  br label %65

65:                                               ; preds = %64
  br label %66

66:                                               ; preds = %65
  br label %67

67:                                               ; preds = %66
  %68 = load ptr, ptr %7, align 8
  store ptr %68, ptr %2, align 8
  store i32 1, ptr %8, align 4
  br label %162

69:                                               ; preds = %53
  %70 = load ptr, ptr %4, align 8
  %71 = getelementptr inbounds nuw %struct.slurm_msg, ptr %70, i32 0, i32 10
  %72 = load ptr, ptr %71, align 8
  %73 = icmp ne ptr %72, null
  br i1 %73, label %74, label %100

74:                                               ; preds = %69
  %75 = load ptr, ptr %4, align 8
  %76 = getelementptr inbounds nuw %struct.slurm_msg, ptr %75, i32 0, i32 10
  %77 = load ptr, ptr %76, align 8
  %78 = getelementptr inbounds nuw %struct.persist_conn_t, ptr %77, i32 0, i32 14
  %79 = load ptr, ptr %78, align 8
  %80 = icmp ne ptr %79, null
  br i1 %80, label %81, label %100

81:                                               ; preds = %74
  %82 = load ptr, ptr %4, align 8
  %83 = getelementptr inbounds nuw %struct.slurm_msg, ptr %82, i32 0, i32 10
  %84 = load ptr, ptr %83, align 8
  %85 = getelementptr inbounds nuw %struct.persist_conn_t, ptr %84, i32 0, i32 14
  %86 = load ptr, ptr %85, align 8
  %87 = call ptr @xstrdup(ptr noundef %86)
  store ptr %87, ptr %7, align 8
  br label %88

88:                                               ; preds = %81
  br label %89

89:                                               ; preds = %88
  %90 = call i32 @get_log_level()
  %91 = icmp sge i32 %90, 7
  br i1 %91, label %92, label %94

92:                                               ; preds = %89
  %93 = load ptr, ptr %7, align 8
  call void (i32, ptr, ...) @log_var(i32 noundef 7, ptr noundef @.str.21, ptr noundef @__func__.auth_g_get_host, ptr noundef %93)
  br label %94

94:                                               ; preds = %92, %89
  br label %95

95:                                               ; preds = %94
  br label %96

96:                                               ; preds = %95
  br label %97

97:                                               ; preds = %96
  br label %98

98:                                               ; preds = %97
  %99 = load ptr, ptr %7, align 8
  store ptr %99, ptr %2, align 8
  store i32 1, ptr %8, align 4
  br label %162

100:                                              ; preds = %74, %69
  %101 = load ptr, ptr %5, align 8
  %102 = getelementptr inbounds nuw %struct.sockaddr_storage, ptr %101, i32 0, i32 0
  %103 = load i16, ptr %102, align 8
  %104 = zext i16 %103 to i32
  %105 = icmp eq i32 %104, 0
  br i1 %105, label %106, label %129

106:                                              ; preds = %100
  call void @llvm.lifetime.start.p0(i64 4, ptr %11) #6
  %107 = load ptr, ptr %4, align 8
  %108 = getelementptr inbounds nuw %struct.slurm_msg, ptr %107, i32 0, i32 11
  %109 = load i32, ptr %108, align 8
  %110 = icmp sge i32 %109, 0
  br i1 %110, label %111, label %125

111:                                              ; preds = %106
  %112 = load ptr, ptr %4, align 8
  %113 = getelementptr inbounds nuw %struct.slurm_msg, ptr %112, i32 0, i32 11
  %114 = load i32, ptr %113, align 8
  %115 = load ptr, ptr %5, align 8
  %116 = call i32 @slurm_get_peer_addr(i32 noundef %114, ptr noundef %115)
  store i32 %116, ptr %11, align 4
  %117 = icmp ne i32 %116, 0
  br i1 %117, label %118, label %125

118:                                              ; preds = %111
  %119 = load ptr, ptr %4, align 8
  %120 = getelementptr inbounds nuw %struct.slurm_msg, ptr %119, i32 0, i32 11
  %121 = load i32, ptr %120, align 8
  %122 = load i32, ptr %11, align 4
  %123 = call ptr @slurm_strerror(i32 noundef %122)
  %124 = call i32 (ptr, ...) @error(ptr noundef @.str.22, ptr noundef @__func__.auth_g_get_host, i32 noundef %121, ptr noundef %123)
  store ptr null, ptr %2, align 8
  store i32 1, ptr %8, align 4
  br label %126

125:                                              ; preds = %111, %106
  store i32 0, ptr %8, align 4
  br label %126

126:                                              ; preds = %125, %118
  call void @llvm.lifetime.end.p0(i64 4, ptr %11) #6
  %127 = load i32, ptr %8, align 4
  switch i32 %127, label %162 [
    i32 0, label %128
  ]

128:                                              ; preds = %126
  br label %129

129:                                              ; preds = %128, %100
  %130 = load ptr, ptr %5, align 8
  %131 = call ptr @xgetnameinfo(ptr noundef %130)
  store ptr %131, ptr %7, align 8
  %132 = icmp ne ptr %131, null
  br i1 %132, label %133, label %145

133:                                              ; preds = %129
  br label %134

134:                                              ; preds = %133
  br label %135

135:                                              ; preds = %134
  %136 = call i32 @get_log_level()
  %137 = icmp sge i32 %136, 7
  br i1 %137, label %138, label %140

138:                                              ; preds = %135
  %139 = load ptr, ptr %7, align 8
  call void (i32, ptr, ...) @log_var(i32 noundef 7, ptr noundef @.str.23, ptr noundef @__func__.auth_g_get_host, ptr noundef %139)
  br label %140

140:                                              ; preds = %138, %135
  br label %141

141:                                              ; preds = %140
  br label %142

142:                                              ; preds = %141
  br label %143

143:                                              ; preds = %142
  br label %144

144:                                              ; preds = %143
  br label %160

145:                                              ; preds = %129
  %146 = call ptr @slurm_xcalloc(i64 noundef 1, i64 noundef 46, i1 noundef zeroext true, i1 noundef zeroext false, ptr noundef @.str.12, i32 noundef 463, ptr noundef @__func__.auth_g_get_host)
  store ptr %146, ptr %7, align 8
  %147 = load ptr, ptr %5, align 8
  %148 = load ptr, ptr %7, align 8
  call void @slurm_get_ip_str(ptr noundef %147, ptr noundef %148, i32 noundef 46)
  br label %149

149:                                              ; preds = %145
  br label %150

150:                                              ; preds = %149
  %151 = call i32 @get_log_level()
  %152 = icmp sge i32 %151, 7
  br i1 %152, label %153, label %155

153:                                              ; preds = %150
  %154 = load ptr, ptr %7, align 8
  call void (i32, ptr, ...) @log_var(i32 noundef 7, ptr noundef @.str.24, ptr noundef @__func__.auth_g_get_host, ptr noundef %154)
  br label %155

155:                                              ; preds = %153, %150
  br label %156

156:                                              ; preds = %155
  br label %157

157:                                              ; preds = %156
  br label %158

158:                                              ; preds = %157
  br label %159

159:                                              ; preds = %158
  br label %160

160:                                              ; preds = %159, %144
  %161 = load ptr, ptr %7, align 8
  store ptr %161, ptr %2, align 8
  store i32 1, ptr %8, align 4
  br label %162

162:                                              ; preds = %160, %126, %98, %67, %22
  call void @llvm.lifetime.end.p0(i64 8, ptr %7) #6
  call void @llvm.lifetime.end.p0(i64 8, ptr %6) #6
  call void @llvm.lifetime.end.p0(i64 8, ptr %5) #6
  call void @llvm.lifetime.end.p0(i64 8, ptr %4) #6
  %163 = load ptr, ptr %2, align 8
  ret ptr %163
}