; Function Attrs: nounwind uwtable
define dso_local ptr @auth_g_get_host(ptr noundef %0) local_unnamed_addr #2 {
  %.not = icmp eq ptr %0, null
  br i1 %.not, label %58, label %2

2:                                                ; preds = %1
  %3 = getelementptr inbounds nuw i8, ptr %0, i64 128
  %4 = load ptr, ptr %3, align 8
  %.not43 = icmp eq ptr %4, null
  br i1 %.not43, label %58, label %5

5:                                                ; preds = %2
  %6 = tail call i32 @pthread_rwlock_rdlock(ptr noundef nonnull @context_lock) #12
  %.not44 = icmp eq i32 %6, 0
  br i1 %.not44, label %9, label %7

7:                                                ; preds = %5
  %8 = tail call ptr @__errno_location() #13
  store i32 %6, ptr %8, align 4
  tail call void (ptr, ...) @fatal_abort(ptr noundef nonnull @.str.19, ptr noundef nonnull @__func__.auth_g_get_host) #11
  unreachable

9:                                                ; preds = %5
  %10 = load ptr, ptr @ops, align 8
  %11 = load i32, ptr %4, align 4
  %12 = sext i32 %11 to i64
  %13 = getelementptr inbounds %struct.auth_ops_t, ptr %10, i64 %12, i32 7
  %14 = load ptr, ptr %13, align 8
  %15 = tail call ptr %14(ptr noundef nonnull %4) #12
  %16 = tail call i32 @pthread_rwlock_unlock(ptr noundef nonnull @context_lock) #12
  %.not45 = icmp eq i32 %16, 0
  br i1 %.not45, label %19, label %17

17:                                               ; preds = %9
  %18 = tail call ptr @__errno_location() #13
  store i32 %16, ptr %18, align 4
  tail call void (ptr, ...) @fatal_abort(ptr noundef nonnull @.str.17, ptr noundef nonnull @__func__.auth_g_get_host) #11
  unreachable

19:                                               ; preds = %9
  %.not46 = icmp eq ptr %15, null
  br i1 %.not46, label %24, label %20

20:                                               ; preds = %19
  %21 = tail call i32 @get_log_level() #12
  %22 = icmp sgt i32 %21, 6
  br i1 %22, label %23, label %58

23:                                               ; preds = %20
  tail call void (i32, ptr, ...) @log_var(i32 noundef 7, ptr noundef nonnull @.str.20, ptr noundef nonnull @__func__.auth_g_get_host, ptr noundef nonnull %15) #12
  br label %58

24:                                               ; preds = %19
  %25 = getelementptr inbounds nuw i8, ptr %0, i64 176
  %26 = load ptr, ptr %25, align 8
  %.not47 = icmp eq ptr %26, null
  br i1 %.not47, label %35, label %27

27:                                               ; preds = %24
  %28 = getelementptr inbounds nuw i8, ptr %26, i64 80
  %29 = load ptr, ptr %28, align 8
  %.not48 = icmp eq ptr %29, null
  br i1 %.not48, label %35, label %30

30:                                               ; preds = %27
  %31 = tail call ptr @xstrdup(ptr noundef nonnull %29) #12
  %32 = tail call i32 @get_log_level() #12
  %33 = icmp sgt i32 %32, 6
  br i1 %33, label %34, label %58

34:                                               ; preds = %30
  tail call void (i32, ptr, ...) @log_var(i32 noundef 7, ptr noundef nonnull @.str.21, ptr noundef nonnull @__func__.auth_g_get_host, ptr noundef %31) #12
  br label %58

35:                                               ; preds = %27, %24
  %36 = load i16, ptr %0, align 8
  %37 = icmp eq i16 %36, 0
  br i1 %37, label %38, label %47

38:                                               ; preds = %35
  %39 = getelementptr inbounds nuw i8, ptr %0, i64 184
  %40 = load i32, ptr %39, align 8
  %41 = icmp sgt i32 %40, -1
  br i1 %41, label %42, label %47

42:                                               ; preds = %38
  %43 = tail call i32 @slurm_get_peer_addr(i32 noundef %40, ptr noundef nonnull %0) #12
  %.not49 = icmp eq i32 %43, 0
  br i1 %.not49, label %47, label %.critedge

.critedge:                                        ; preds = %42
  %44 = load i32, ptr %39, align 8
  %45 = tail call ptr @slurm_strerror(i32 noundef %43) #12
  %46 = tail call i32 (ptr, ...) @error(ptr noundef nonnull @.str.22, ptr noundef nonnull @__func__.auth_g_get_host, i32 noundef %44, ptr noundef %45) #12
  br label %58

47:                                               ; preds = %42, %38, %35
  %48 = tail call ptr @xgetnameinfo(ptr noundef nonnull %0) #12
  %.not50 = icmp eq ptr %48, null
  br i1 %.not50, label %53, label %49

49:                                               ; preds = %47
  %50 = tail call i32 @get_log_level() #12
  %51 = icmp sgt i32 %50, 6
  br i1 %51, label %52, label %58

52:                                               ; preds = %49
  tail call void (i32, ptr, ...) @log_var(i32 noundef 7, ptr noundef nonnull @.str.23, ptr noundef nonnull @__func__.auth_g_get_host, ptr noundef nonnull %48) #12
  br label %58

53:                                               ; preds = %47
  %54 = tail call ptr @slurm_xcalloc(i64 noundef 1, i64 noundef 46, i1 noundef zeroext true, i1 noundef zeroext false, ptr noundef nonnull @.str.12, i32 noundef 463, ptr noundef nonnull @__func__.auth_g_get_host) #12
  tail call void @slurm_get_ip_str(ptr noundef nonnull %0, ptr noundef %54, i32 noundef 46) #12
  %55 = tail call i32 @get_log_level() #12
  %56 = icmp sgt i32 %55, 6
  br i1 %56, label %57, label %58

57:                                               ; preds = %53
  tail call void (i32, ptr, ...) @log_var(i32 noundef 7, ptr noundef nonnull @.str.24, ptr noundef nonnull @__func__.auth_g_get_host, ptr noundef %54) #12
  br label %58

58:                                               ; preds = %52, %49, %57, %53, %.critedge, %30, %34, %20, %23, %1, %2
  %.0 = phi ptr [ null, %2 ], [ null, %1 ], [ %15, %23 ], [ %15, %20 ], [ %31, %34 ], [ %31, %30 ], [ null, %.critedge ], [ %48, %52 ], [ %48, %49 ], [ %54, %57 ], [ %54, %53 ]
  ret ptr %.0
}